target datalayout = "e-m:e-p270:32:32-p271:32:32-p272:64:64-i64:64-i128:128-f80:128-n8:16:32:64-S128"
target triple = "x86_64-pc-linux-gnu"

%struct.ssl_hmac_st = type { ptr, ptr }

@.str.2 = private unnamed_addr constant [24 x i8] c"../openssl/ssl/t1_lib.c\00", align 1

; Function Attrs: nounwind uwtable
define void @ssl_hmac_free(ptr noundef %0) #1 {
  %2 = alloca ptr, align 8
  store ptr %0, ptr %2, align 8, !tbaa !289
  %3 = load ptr, ptr %2, align 8, !tbaa !289
  %4 = icmp ne ptr %3, null
  br i1 %4, label %5, label %11

5:                                                ; preds = %1
  %6 = load ptr, ptr %2, align 8, !tbaa !289
  %7 = getelementptr inbounds nuw %struct.ssl_hmac_st, ptr %6, i32 0, i32 0
  %8 = load ptr, ptr %7, align 8, !tbaa !308
  call void @EVP_MAC_CTX_free(ptr noundef %8)
  %9 = load ptr, ptr %2, align 8, !tbaa !289
  call void @ssl_hmac_old_free(ptr noundef %9)
  %10 = load ptr, ptr %2, align 8, !tbaa !289
  call void @CRYPTO_free(ptr noundef %10, ptr noundef @.str.2, i32 noundef 4676)
  br label %11

11:                                               ; preds = %5, %1
  ret void
}