; Function Attrs: nounwind uwtable
define void @ssl_hmac_free(ptr noundef %0) local_unnamed_addr #2 {
  %.not = icmp eq ptr %0, null
  br i1 %.not, label %4, label %2

2:                                                ; preds = %1
  %3 = load ptr, ptr %0, align 8, !tbaa !257
  tail call void @EVP_MAC_CTX_free(ptr noundef %3) #14
  tail call void @ssl_hmac_old_free(ptr noundef nonnull %0) #14
  tail call void @CRYPTO_free(ptr noundef nonnull %0, ptr noundef nonnull @.str.2, i32 noundef 4676) #14
  br label %4

4:                                                ; preds = %2, %1
  ret void
}